; Function Attrs: nounwind uwtable
define i32 @EVP_PKEY_is_a(ptr noundef readonly captures(address_is_null) %0, ptr noundef %1) local_unnamed_addr #0 {
  %3 = icmp eq ptr %0, null
  br i1 %3, label %15, label %4

4:                                                ; preds = %2
  %5 = getelementptr inbounds nuw i8, ptr %0, i64 96
  %6 = load ptr, ptr %5, align 8, !tbaa !30
  %7 = icmp eq ptr %6, null
  br i1 %7, label %8, label %13

8:                                                ; preds = %4
  %9 = load i32, ptr %0, align 8, !tbaa !26
  %10 = tail call i32 @evp_pkey_name2type(ptr noundef %1)
  %11 = icmp eq i32 %9, %10
  %12 = zext i1 %11 to i32
  br label %15

13:                                               ; preds = %4
  %14 = tail call i32 @EVP_KEYMGMT_is_a(ptr noundef nonnull %6, ptr noundef %1) #12
  br label %15

15:                                               ; preds = %2, %13, %8
  %.0 = phi i32 [ %12, %8 ], [ %14, %13 ], [ 0, %2 ]
  ret i32 %.0
}